target datalayout = "e-m:e-p270:32:32-p271:32:32-p272:64:64-i64:64-i128:128-f80:128-n8:16:32:64-S128"
target triple = "x86_64-pc-linux-gnu"

; Function Attrs: nounwind uwtable
define hidden i32 @drsuapi_dissect_enum_DsAttributeId(ptr noundef %0, i32 noundef %1, ptr noundef %2, ptr noundef %3, ptr noundef %4, ptr noundef %5, i32 noundef %6, ptr noundef %7) #0 {
  %9 = alloca ptr, align 8
  %10 = alloca i32, align 4
  %11 = alloca ptr, align 8
  %12 = alloca ptr, align 8
  %13 = alloca ptr, align 8
  %14 = alloca ptr, align 8
  %15 = alloca i32, align 4
  %16 = alloca ptr, align 8
  %17 = alloca i32, align 4
  store ptr %0, ptr %9, align 8
  store i32 %1, ptr %10, align 4
  store ptr %2, ptr %11, align 8
  store ptr %3, ptr %12, align 8
  store ptr %4, ptr %13, align 8
  store ptr %5, ptr %14, align 8
  store i32 %6, ptr %15, align 4
  store ptr %7, ptr %16, align 8
  store i32 0, ptr %17, align 4
  %18 = load ptr, ptr %16, align 8
  %19 = icmp ne ptr %18, null
  br i1 %19, label %20, label %23

20:                                               ; preds = %8
  %21 = load ptr, ptr %16, align 8
  %22 = load i32, ptr %21, align 4
  store i32 %22, ptr %17, align 4
  br label %23

23:                                               ; preds = %20, %8
  %24 = load ptr, ptr %9, align 8
  %25 = load i32, ptr %10, align 4
  %26 = load ptr, ptr %11, align 8
  %27 = load ptr, ptr %12, align 8
  %28 = load ptr, ptr %13, align 8
  %29 = load ptr, ptr %14, align 8
  %30 = load i32, ptr %15, align 4
  %31 = call i32 @dissect_ndr_uint32(ptr noundef %24, i32 noundef %25, ptr noundef %26, ptr noundef %27, ptr noundef %28, ptr noundef %29, i32 noundef %30, ptr noundef %17)
  store i32 %31, ptr %10, align 4
  %32 = load ptr, ptr %16, align 8
  %33 = icmp ne ptr %32, null
  br i1 %33, label %34, label %37

34:                                               ; preds = %23
  %35 = load i32, ptr %17, align 4
  %36 = load ptr, ptr %16, align 8
  store i32 %35, ptr %36, align 4
  br label %37

37:                                               ; preds = %34, %23
  %38 = load i32, ptr %10, align 4
  ret i32 %38
}